target datalayout = "e-m:e-p270:32:32-p271:32:32-p272:64:64-i64:64-i128:128-f80:128-n8:16:32:64-S128"
target triple = "x86_64-unknown-linux-gnu"

%class.func_entry = type { i8, ptr, [0 x ptr] }
%class.ast = type { i32, i24, i32, i32 }

; Function Attrs: mustprogress nounwind uwtable
define linkonce_odr hidden void @_ZN3ast7inc_refEv(ptr noundef nonnull align 4 dereferenceable(16) %this) #5 comdat align 2 {
entry:
  %this.addr = alloca ptr, align 8
  store ptr %this, ptr %this.addr, align 8
  %this1 = load ptr, ptr %this.addr, align 8
  %m_ref_count = getelementptr inbounds %class.ast, ptr %this1, i32 0, i32 2
  %0 = load i32, ptr %m_ref_count, align 4
  %inc = add i32 %0, 1
  store i32 %inc, ptr %m_ref_count, align 4
  ret void
}

; Function Attrs: mustprogress uwtable
define linkonce_odr hidden void @_ZN11ast_manager7inc_refEP3ast(ptr noundef nonnull align 8 dereferenceable(976) %this, ptr noundef %n) #4 comdat align 2 {
entry:
  %this.addr = alloca ptr, align 8
  %n.addr = alloca ptr, align 8
  store ptr %this, ptr %this.addr, align 8
  store ptr %n, ptr %n.addr, align 8
  %0 = load ptr, ptr %n.addr, align 8
  %tobool = icmp ne ptr %0, null
  br i1 %tobool, label %if.then, label %if.end

if.then:                                          ; preds = %entry
  %1 = load ptr, ptr %n.addr, align 8
  call void @_ZN3ast7inc_refEv(ptr noundef nonnull align 4 dereferenceable(16) %1)
  br label %if.end

if.end:                                           ; preds = %if.then, %entry
  ret void
}

; Function Attrs: mustprogress uwtable
define hidden void @_ZN10func_entryC2ER11ast_managerjPKP4exprS3_(ptr noundef nonnull align 8 dereferenceable(16) %this, ptr noundef nonnull align 8 dereferenceable(976) %m, i32 noundef %arity, ptr noundef %args, ptr noundef %result) unnamed_addr #4 align 2 {
entry:
  %this.addr = alloca ptr, align 8
  %m.addr = alloca ptr, align 8
  %arity.addr = alloca i32, align 4
  %args.addr = alloca ptr, align 8
  %result.addr = alloca ptr, align 8
  %i = alloca i32, align 4
  %arg = alloca ptr, align 8
  store ptr %this, ptr %this.addr, align 8
  store ptr %m, ptr %m.addr, align 8
  store i32 %arity, ptr %arity.addr, align 4
  store ptr %args, ptr %args.addr, align 8
  store ptr %result, ptr %result.addr, align 8
  %this1 = load ptr, ptr %this.addr, align 8
  %m_args_are_values = getelementptr inbounds %class.func_entry, ptr %this1, i32 0, i32 0
  store i8 1, ptr %m_args_are_values, align 8
  %m_result = getelementptr inbounds %class.func_entry, ptr %this1, i32 0, i32 1
  %0 = load ptr, ptr %result.addr, align 8
  store ptr %0, ptr %m_result, align 8
  %1 = load ptr, ptr %m.addr, align 8
  %2 = load ptr, ptr %result.addr, align 8
  call void @_ZN11ast_manager7inc_refEP3ast(ptr noundef nonnull align 8 dereferenceable(976) %1, ptr noundef %2)
  store i32 0, ptr %i, align 4
  br label %for.cond

for.cond:                                         ; preds = %for.inc, %entry
  %3 = load i32, ptr %i, align 4
  %4 = load i32, ptr %arity.addr, align 4
  %cmp = icmp ult i32 %3, %4
  br i1 %cmp, label %for.body, label %for.end

for.body:                                         ; preds = %for.cond
  %5 = load ptr, ptr %args.addr, align 8
  %6 = load i32, ptr %i, align 4
  %idxprom = zext i32 %6 to i64
  %arrayidx = getelementptr inbounds ptr, ptr %5, i64 %idxprom
  %7 = load ptr, ptr %arrayidx, align 8
  store ptr %7, ptr %arg, align 8
  %8 = load ptr, ptr %m.addr, align 8
  %9 = load ptr, ptr %arg, align 8
  %call = call noundef zeroext i1 @_ZNK11ast_manager8is_valueEP4expr(ptr noundef nonnull align 8 dereferenceable(976) %8, ptr noundef %9)
  br i1 %call, label %if.end, label %if.then

if.then:                                          ; preds = %for.body
  %m_args_are_values2 = getelementptr inbounds %class.func_entry, ptr %this1, i32 0, i32 0
  store i8 0, ptr %m_args_are_values2, align 8
  br label %if.end

if.end:                                           ; preds = %if.then, %for.body
  %10 = load ptr, ptr %m.addr, align 8
  %11 = load ptr, ptr %arg, align 8
  call void @_ZN11ast_manager7inc_refEP3ast(ptr noundef nonnull align 8 dereferenceable(976) %10, ptr noundef %11)
  %12 = load ptr, ptr %arg, align 8
  %m_args = getelementptr inbounds %class.func_entry, ptr %this1, i32 0, i32 2
  %13 = load i32, ptr %i, align 4
  %idxprom3 = zext i32 %13 to i64
  %arrayidx4 = getelementptr inbounds [0 x ptr], ptr %m_args, i64 0, i64 %idxprom3
  store ptr %12, ptr %arrayidx4, align 8
  br label %for.inc

for.inc:                                          ; preds = %if.end
  %14 = load i32, ptr %i, align 4
  %inc = add i32 %14, 1
  store i32 %inc, ptr %i, align 4
  br label %for.cond, !llvm.loop !4

for.end:                                          ; preds = %for.cond
  ret void
}