; Function Attrs: mustprogress uwtable
define hidden void @_ZN10func_entryC2ER11ast_managerjPKP4exprS3_(ptr nocapture noundef nonnull writeonly align 8 dereferenceable(16) %this, ptr noundef nonnull align 8 dereferenceable(976) %m, i32 noundef %arity, ptr nocapture noundef readonly %args, ptr noundef %result) unnamed_addr #3 align 2 {
entry:
  store i8 1, ptr %this, align 8
  %m_result = getelementptr inbounds i8, ptr %this, i64 8
  store ptr %result, ptr %m_result, align 8
  %tobool.not.i = icmp eq ptr %result, null
  br i1 %tobool.not.i, label %_ZN11ast_manager7inc_refEP3ast.exit, label %if.then.i

if.then.i:                                        ; preds = %entry
  %m_ref_count.i.i = getelementptr inbounds i8, ptr %result, i64 8
  %0 = load i32, ptr %m_ref_count.i.i, align 4
  %inc.i.i = add i32 %0, 1
  store i32 %inc.i.i, ptr %m_ref_count.i.i, align 4
  br label %_ZN11ast_manager7inc_refEP3ast.exit

_ZN11ast_manager7inc_refEP3ast.exit:              ; preds = %entry, %if.then.i
  %cmp14.not = icmp eq i32 %arity, 0
  br i1 %cmp14.not, label %for.end, label %for.body.lr.ph

for.body.lr.ph:                                   ; preds = %_ZN11ast_manager7inc_refEP3ast.exit
  %m_args = getelementptr inbounds i8, ptr %this, i64 16
  %wide.trip.count = zext i32 %arity to i64
  br label %for.body

for.body:                                         ; preds = %for.body.lr.ph, %_ZN11ast_manager7inc_refEP3ast.exit13
  %indvars.iv = phi i64 [ 0, %for.body.lr.ph ], [ %indvars.iv.next, %_ZN11ast_manager7inc_refEP3ast.exit13 ]
  %arrayidx = getelementptr inbounds ptr, ptr %args, i64 %indvars.iv
  %1 = load ptr, ptr %arrayidx, align 8
  %call = tail call noundef zeroext i1 @_ZNK11ast_manager8is_valueEP4expr(ptr noundef nonnull align 8 dereferenceable(976) %m, ptr noundef %1)
  br i1 %call, label %if.end, label %if.then

if.then:                                          ; preds = %for.body
  store i8 0, ptr %this, align 8
  br label %if.end

if.end:                                           ; preds = %if.then, %for.body
  %tobool.not.i9 = icmp eq ptr %1, null
  br i1 %tobool.not.i9, label %_ZN11ast_manager7inc_refEP3ast.exit13, label %if.then.i10

if.then.i10:                                      ; preds = %if.end
  %m_ref_count.i.i11 = getelementptr inbounds i8, ptr %1, i64 8
  %2 = load i32, ptr %m_ref_count.i.i11, align 4
  %inc.i.i12 = add i32 %2, 1
  store i32 %inc.i.i12, ptr %m_ref_count.i.i11, align 4
  br label %_ZN11ast_manager7inc_refEP3ast.exit13

_ZN11ast_manager7inc_refEP3ast.exit13:            ; preds = %if.end, %if.then.i10
  %arrayidx4 = getelementptr inbounds [0 x ptr], ptr %m_args, i64 0, i64 %indvars.iv
  store ptr %1, ptr %arrayidx4, align 8
  %indvars.iv.next = add nuw nsw i64 %indvars.iv, 1
  %exitcond.not = icmp eq i64 %indvars.iv.next, %wide.trip.count
  br i1 %exitcond.not, label %for.end, label %for.body, !llvm.loop !4

for.end:                                          ; preds = %_ZN11ast_manager7inc_refEP3ast.exit13, %_ZN11ast_manager7inc_refEP3ast.exit
  ret void
}